; Function Attrs: nounwind uwtable
define hidden void @je_psset_init(ptr noundef %0) local_unnamed_addr #0 {
  br label %4

2:                                                ; preds = %4
  %3 = getelementptr inbounds nuw i8, ptr %0, i64 1024
  tail call void @llvm.memset.p0.i64(ptr noundef nonnull align 8 dereferenceable(4304) %3, i8 0, i64 4304, i1 false)
  ret void

4:                                                ; preds = %1, %4
  %indvars.iv = phi i64 [ 0, %1 ], [ %indvars.iv.next, %4 ]
  %5 = getelementptr inbounds nuw [64 x %struct.hpdata_age_heap_t], ptr %0, i64 0, i64 %indvars.iv
  tail call void @je_hpdata_age_heap_new(ptr noundef %5) #9
  %indvars.iv.next = add nuw nsw i64 %indvars.iv, 1
  %exitcond.not = icmp eq i64 %indvars.iv.next, 64
  br i1 %exitcond.not, label %2, label %4, !llvm.loop !4
}